target datalayout = "e-m:e-p270:32:32-p271:32:32-p272:64:64-i64:64-i128:128-f80:128-n8:16:32:64-S128"
target triple = "x86_64-pc-linux-gnu"

%class.QString = type { %struct.QArrayDataPointer }
%struct.QArrayDataPointer = type { ptr, ptr, i64 }
%class.RpcServiceResponseTimeDialog = type <{ %class.ServiceResponseTimeDialog, i32, [4 x i8], ptr, ptr, %class.QList.5, %class.QMap, %class.QMap.9, i32, [4 x i8] }>
%class.ServiceResponseTimeDialog = type { %class.TapParameterDialog, ptr, %struct._srt_data_t }
%class.TapParameterDialog = type { %class.WiresharkDialog.base, ptr, %class.QMenu, %class.QList.1, i32, ptr }
%class.WiresharkDialog.base = type <{ %class.GeometryStateDialog, ptr, i8, [7 x i8], %class.QString, %class.QList, i32, i8 }>
%class.GeometryStateDialog = type { %class.QDialog, %class.QString }
%class.QDialog = type { %class.QWidget }
%class.QWidget = type { %class.QObject, %class.QPaintDevice.base, ptr }
%class.QObject = type { ptr, %class.QScopedPointer }
%class.QScopedPointer = type { ptr }
%class.QPaintDevice.base = type <{ ptr, i16 }>
%class.QList = type { %struct.QArrayDataPointer.0 }
%struct.QArrayDataPointer.0 = type { ptr, ptr, i64 }
%class.QMenu = type { %class.QWidget }
%class.QList.1 = type { %struct.QArrayDataPointer.4 }
%struct.QArrayDataPointer.4 = type { ptr, ptr, i64 }
%struct._srt_data_t = type { ptr, ptr }
%class.QList.5 = type { %struct.QArrayDataPointer.8 }
%struct.QArrayDataPointer.8 = type { ptr, ptr, i64 }
%class.QMap = type { %"class.QtPrivate::QExplicitlySharedDataPointerV2" }
%"class.QtPrivate::QExplicitlySharedDataPointerV2" = type { ptr }
%class.QMap.9 = type { %"class.QtPrivate::QExplicitlySharedDataPointerV2.10" }
%"class.QtPrivate::QExplicitlySharedDataPointerV2.10" = type { ptr }
%class.QVariant = type { %"struct.QVariant::Private" }
%"struct.QVariant::Private" = type { %union.anon, i64 }
%union.anon = type { ptr, [16 x i8] }
%class.QBasicAtomicInteger = type { %"struct.std::atomic" }
%"struct.std::atomic" = type { %"struct.std::__atomic_base" }
%"struct.std::__atomic_base" = type { i32 }
%struct.QArrayData = type { %class.QBasicAtomicInteger, %class.QFlags.19, i64 }
%class.QFlags.19 = type { i32 }

; Function Attrs: mustprogress nounwind uwtable
define linkonce_odr noundef i32 @_ZNSt13__atomic_baseIiEmmEv(ptr noundef nonnull align 4 dereferenceable(4) %0) #1 comdat align 2 {
  %2 = alloca ptr, align 8
  %3 = alloca i32, align 4
  %4 = alloca i32, align 4
  store ptr %0, ptr %2, align 8
  %5 = load ptr, ptr %2, align 8
  %6 = getelementptr inbounds %"struct.std::__atomic_base", ptr %5, i32 0, i32 0
  store i32 1, ptr %3, align 4
  %7 = load i32, ptr %3, align 4
  %8 = atomicrmw sub ptr %6, i32 %7 seq_cst, align 4
  %9 = sub i32 %8, %7
  store i32 %9, ptr %4, align 4
  %10 = load i32, ptr %4, align 4
  ret i32 %10
}

; Function Attrs: mustprogress nounwind uwtable
define linkonce_odr noundef zeroext i1 @_ZN10QAtomicOpsIiE5derefIiEEbRSt6atomicIT_E(ptr noundef nonnull align 4 dereferenceable(4) %0) #1 comdat align 2 {
  %2 = alloca ptr, align 8
  store ptr %0, ptr %2, align 8
  %3 = load ptr, ptr %2, align 8
  %4 = call noundef i32 @_ZNSt13__atomic_baseIiEmmEv(ptr noundef nonnull align 4 dereferenceable(4) %3) #15
  %5 = icmp ne i32 %4, 0
  ret i1 %5
}

; Function Attrs: mustprogress nounwind uwtable
define linkonce_odr noundef zeroext i1 @_ZN19QBasicAtomicIntegerIiE5derefEv(ptr noundef nonnull align 4 dereferenceable(4) %0) #1 comdat align 2 {
  %2 = alloca ptr, align 8
  store ptr %0, ptr %2, align 8
  %3 = load ptr, ptr %2, align 8
  %4 = getelementptr inbounds %class.QBasicAtomicInteger, ptr %3, i32 0, i32 0
  %5 = call noundef zeroext i1 @_ZN10QAtomicOpsIiE5derefIiEEbRSt6atomicIT_E(ptr noundef nonnull align 4 dereferenceable(4) %4) #15
  ret i1 %5
}

; Function Attrs: mustprogress nounwind uwtable
define linkonce_odr noundef zeroext i1 @_ZN10QArrayData5derefEv(ptr noundef nonnull align 8 dereferenceable(16) %0) #1 comdat align 2 {
  %2 = alloca ptr, align 8
  store ptr %0, ptr %2, align 8
  %3 = load ptr, ptr %2, align 8
  %4 = getelementptr inbounds %struct.QArrayData, ptr %3, i32 0, i32 0
  %5 = call noundef zeroext i1 @_ZN19QBasicAtomicIntegerIiE5derefEv(ptr noundef nonnull align 4 dereferenceable(4) %4) #15
  ret i1 %5
}

; Function Attrs: mustprogress nounwind uwtable
define linkonce_odr void @_ZN15QTypedArrayDataIDsE10deallocateEP10QArrayData(ptr noundef %0) #1 comdat align 2 {
  %2 = alloca ptr, align 8
  store ptr %0, ptr %2, align 8
  %3 = load ptr, ptr %2, align 8
  call void @_ZN10QArrayData10deallocateEPS_xx(ptr noundef %3, i64 noundef 2, i64 noundef 8) #15
  ret void
}

; Function Attrs: mustprogress nounwind uwtable
define linkonce_odr void @_ZN9QtPrivate12QPodArrayOpsIDsE10destroyAllEv(ptr noundef nonnull align 8 dereferenceable(24) %0) #1 comdat align 2 {
  %2 = alloca ptr, align 8
  store ptr %0, ptr %2, align 8
  ret void
}

; Function Attrs: mustprogress nounwind uwtable
define linkonce_odr noundef ptr @_ZN17QArrayDataPointerIDsEptEv(ptr noundef nonnull align 8 dereferenceable(24) %0) #1 comdat align 2 {
  %2 = alloca ptr, align 8
  store ptr %0, ptr %2, align 8
  %3 = load ptr, ptr %2, align 8
  ret ptr %3
}

; Function Attrs: mustprogress nounwind uwtable
define linkonce_odr noundef zeroext i1 @_ZN17QArrayDataPointerIDsE5derefEv(ptr noundef nonnull align 8 dereferenceable(24) %0) #1 comdat align 2 {
  %2 = alloca ptr, align 8
  store ptr %0, ptr %2, align 8
  %3 = load ptr, ptr %2, align 8
  %4 = getelementptr inbounds %struct.QArrayDataPointer, ptr %3, i32 0, i32 0
  %5 = load ptr, ptr %4, align 8
  %6 = icmp ne ptr %5, null
  br i1 %6, label %7, label %11

7:                                                ; preds = %1
  %8 = getelementptr inbounds %struct.QArrayDataPointer, ptr %3, i32 0, i32 0
  %9 = load ptr, ptr %8, align 8
  %10 = call noundef zeroext i1 @_ZN10QArrayData5derefEv(ptr noundef nonnull align 8 dereferenceable(16) %9) #15
  br label %11

11:                                               ; preds = %7, %1
  %12 = phi i1 [ true, %1 ], [ %10, %7 ]
  ret i1 %12
}

; Function Attrs: mustprogress nounwind uwtable
define linkonce_odr void @_ZN17QArrayDataPointerIDsED2Ev(ptr noundef nonnull align 8 dereferenceable(24) %0) unnamed_addr #1 comdat align 2 {
  %2 = alloca ptr, align 8
  store ptr %0, ptr %2, align 8
  %3 = load ptr, ptr %2, align 8
  %4 = call noundef zeroext i1 @_ZN17QArrayDataPointerIDsE5derefEv(ptr noundef nonnull align 8 dereferenceable(24) %3) #15
  br i1 %4, label %9, label %5

5:                                                ; preds = %1
  %6 = call noundef ptr @_ZN17QArrayDataPointerIDsEptEv(ptr noundef nonnull align 8 dereferenceable(24) %3) #15
  call void @_ZN9QtPrivate12QPodArrayOpsIDsE10destroyAllEv(ptr noundef nonnull align 8 dereferenceable(24) %6) #15
  %7 = getelementptr inbounds %struct.QArrayDataPointer, ptr %3, i32 0, i32 0
  %8 = load ptr, ptr %7, align 8
  call void @_ZN15QTypedArrayDataIDsE10deallocateEP10QArrayData(ptr noundef %8) #15
  br label %9

9:                                                ; preds = %5, %1
  ret void
}

; Function Attrs: mustprogress nounwind uwtable
define linkonce_odr void @_ZN7QStringD2Ev(ptr noundef nonnull align 8 dereferenceable(24) %0) unnamed_addr #1 comdat align 2 {
  %2 = alloca ptr, align 8
  store ptr %0, ptr %2, align 8
  %3 = load ptr, ptr %2, align 8
  %4 = getelementptr inbounds %class.QString, ptr %3, i32 0, i32 0
  call void @_ZN17QArrayDataPointerIDsED2Ev(ptr noundef nonnull align 8 dereferenceable(24) %4) #15
  ret void
}

; Function Attrs: mustprogress uwtable
define void @_ZN28RpcServiceResponseTimeDialog20setRpcNameAndVersionERK7QStringi(ptr noundef nonnull align 8 dereferenceable(316) %0, ptr noundef nonnull align 8 dereferenceable(24) %1, i32 noundef %2) #0 align 2 personality ptr @__gxx_personality_v0 {
  %4 = alloca ptr, align 8
  %5 = alloca ptr, align 8
  %6 = alloca i32, align 4
  %7 = alloca i8, align 1
  %8 = alloca i32, align 4
  %9 = alloca %class.QString, align 8
  %10 = alloca i32, align 4
  %11 = alloca %class.QVariant, align 8
  %12 = alloca ptr, align 8
  %13 = alloca i32, align 4
  store ptr %0, ptr %4, align 8
  store ptr %1, ptr %5, align 8
  store i32 %2, ptr %6, align 4
  %14 = load ptr, ptr %4, align 8
  store i8 0, ptr %7, align 1
  store i32 0, ptr %8, align 4
  br label %15

15:                                               ; preds = %60, %3
  %16 = load i32, ptr %8, align 4
  %17 = getelementptr inbounds %class.RpcServiceResponseTimeDialog, ptr %14, i32 0, i32 3
  %18 = load ptr, ptr %17, align 8
  %19 = call noundef i32 @_ZNK9QComboBox5countEv(ptr noundef nonnull align 8 dereferenceable(40) %18)
  %20 = icmp slt i32 %16, %19
  br i1 %20, label %21, label %63

21:                                               ; preds = %15
  %22 = load ptr, ptr %5, align 8
  %23 = getelementptr inbounds %class.RpcServiceResponseTimeDialog, ptr %14, i32 0, i32 3
  %24 = load ptr, ptr %23, align 8
  %25 = load i32, ptr %8, align 4
  call void @_ZNK9QComboBox8itemTextEi(ptr dead_on_unwind writable sret(%class.QString) align 8 %9, ptr noundef nonnull align 8 dereferenceable(40) %24, i32 noundef %25)
  %26 = call noundef i32 @_ZNK7QString7compareERKS_N2Qt15CaseSensitivityE(ptr noundef nonnull align 8 dereferenceable(24) %22, ptr noundef nonnull align 8 dereferenceable(24) %9, i32 noundef 0) #15
  %27 = icmp eq i32 %26, 0
  call void @_ZN7QStringD2Ev(ptr noundef nonnull align 8 dereferenceable(24) %9) #15
  br i1 %27, label %28, label %59

28:                                               ; preds = %21
  %29 = getelementptr inbounds %class.RpcServiceResponseTimeDialog, ptr %14, i32 0, i32 3
  %30 = load ptr, ptr %29, align 8
  %31 = load i32, ptr %8, align 4
  call void @_ZN9QComboBox15setCurrentIndexEi(ptr noundef nonnull align 8 dereferenceable(40) %30, i32 noundef %31)
  store i32 0, ptr %10, align 4
  br label %32

32:                                               ; preds = %55, %28
  %33 = load i32, ptr %10, align 4
  %34 = getelementptr inbounds %class.RpcServiceResponseTimeDialog, ptr %14, i32 0, i32 4
  %35 = load ptr, ptr %34, align 8
  %36 = call noundef i32 @_ZNK9QComboBox5countEv(ptr noundef nonnull align 8 dereferenceable(40) %35)
  %37 = icmp slt i32 %33, %36
  br i1 %37, label %38, label %58

38:                                               ; preds = %32
  %39 = load i32, ptr %6, align 4
  %40 = getelementptr inbounds %class.RpcServiceResponseTimeDialog, ptr %14, i32 0, i32 4
  %41 = load ptr, ptr %40, align 8
  %42 = load i32, ptr %10, align 4
  call void @_ZNK9QComboBox8itemDataEii(ptr dead_on_unwind writable sret(%class.QVariant) align 8 %11, ptr noundef nonnull align 8 dereferenceable(40) %41, i32 noundef %42, i32 noundef 256)
  %43 = invoke noundef i32 @_ZNK8QVariant6toUIntEPb(ptr noundef nonnull align 8 dereferenceable(32) %11, ptr noundef null)
          to label %44 unwind label %50

44:                                               ; preds = %38
  %45 = icmp eq i32 %39, %43
  call void @_ZN8QVariantD1Ev(ptr noundef nonnull align 8 dereferenceable(32) %11) #15
  br i1 %45, label %46, label %54

46:                                               ; preds = %44
  %47 = getelementptr inbounds %class.RpcServiceResponseTimeDialog, ptr %14, i32 0, i32 4
  %48 = load ptr, ptr %47, align 8
  %49 = load i32, ptr %10, align 4
  call void @_ZN9QComboBox15setCurrentIndexEi(ptr noundef nonnull align 8 dereferenceable(40) %48, i32 noundef %49)
  store i8 1, ptr %7, align 1
  br label %58

50:                                               ; preds = %38
  %51 = landingpad { ptr, i32 }
          cleanup
  %52 = extractvalue { ptr, i32 } %51, 0
  store ptr %52, ptr %12, align 8
  %53 = extractvalue { ptr, i32 } %51, 1
  store i32 %53, ptr %13, align 4
  call void @_ZN8QVariantD1Ev(ptr noundef nonnull align 8 dereferenceable(32) %11) #15
  br label %71

54:                                               ; preds = %44
  br label %55

55:                                               ; preds = %54
  %56 = load i32, ptr %10, align 4
  %57 = add i32 %56, 1
  store i32 %57, ptr %10, align 4
  br label %32, !llvm.loop !7

58:                                               ; preds = %46, %32
  br label %63

59:                                               ; preds = %21
  br label %60

60:                                               ; preds = %59
  %61 = load i32, ptr %8, align 4
  %62 = add i32 %61, 1
  store i32 %62, ptr %8, align 4
  br label %15, !llvm.loop !8

63:                                               ; preds = %58, %15
  %64 = load i8, ptr %7, align 1
  %65 = trunc i8 %64 to i1
  br i1 %65, label %66, label %70

66:                                               ; preds = %63
  %67 = load ptr, ptr %14, align 8
  %68 = getelementptr inbounds ptr, ptr %67, i64 65
  %69 = load ptr, ptr %68, align 8
  call void %69(ptr noundef nonnull align 8 dereferenceable(248) %14)
  br label %70

70:                                               ; preds = %66, %63
  ret void

71:                                               ; preds = %50
  %72 = load ptr, ptr %12, align 8
  %73 = load i32, ptr %13, align 4
  %74 = insertvalue { ptr, i32 } poison, ptr %72, 0
  %75 = insertvalue { ptr, i32 } %74, i32 %73, 1
  resume { ptr, i32 } %75
}