; Function Attrs: mustprogress uwtable
define void @_ZN28RpcServiceResponseTimeDialog20setRpcNameAndVersionERK7QStringi(ptr noundef nonnull align 8 dereferenceable(316) %0, ptr noundef nonnull align 8 dereferenceable(24) %1, i32 noundef %2) local_unnamed_addr #0 align 2 personality ptr @__gxx_personality_v0 {
  %4 = alloca %class.QString, align 8
  %5 = alloca %class.QVariant, align 8
  %6 = getelementptr inbounds i8, ptr %0, i64 256
  %7 = load ptr, ptr %6, align 8
  %8 = tail call noundef i32 @_ZNK9QComboBox5countEv(ptr noundef nonnull align 8 dereferenceable(40) %7)
  %9 = icmp sgt i32 %8, 0
  br i1 %9, label %.lr.ph, label %.loopexit

.lr.ph:                                           ; preds = %3, %38
  %.01322 = phi i32 [ %39, %38 ], [ 0, %3 ]
  %10 = load ptr, ptr %6, align 8
  call void @_ZNK9QComboBox8itemTextEi(ptr dead_on_unwind nonnull writable sret(%class.QString) align 8 %4, ptr noundef nonnull align 8 dereferenceable(40) %10, i32 noundef %.01322)
  %11 = call noundef i32 @_ZNK7QString7compareERKS_N2Qt15CaseSensitivityE(ptr noundef nonnull align 8 dereferenceable(24) %1, ptr noundef nonnull align 8 dereferenceable(24) %4, i32 noundef 0) #19
  %12 = icmp eq i32 %11, 0
  %13 = load ptr, ptr %4, align 8
  %.not.i.i.i = icmp eq ptr %13, null
  br i1 %.not.i.i.i, label %_ZN7QStringD2Ev.exit, label %_ZN17QArrayDataPointerIDsE5derefEv.exit.i.i

_ZN17QArrayDataPointerIDsE5derefEv.exit.i.i:      ; preds = %.lr.ph
  %14 = atomicrmw sub ptr %13, i32 1 seq_cst, align 4
  %.not.i.i = icmp eq i32 %14, 1
  br i1 %.not.i.i, label %15, label %_ZN7QStringD2Ev.exit

15:                                               ; preds = %_ZN17QArrayDataPointerIDsE5derefEv.exit.i.i
  %16 = load ptr, ptr %4, align 8
  call void @_ZN10QArrayData10deallocateEPS_xx(ptr noundef %16, i64 noundef 2, i64 noundef 8) #19
  br label %_ZN7QStringD2Ev.exit

_ZN7QStringD2Ev.exit:                             ; preds = %.lr.ph, %_ZN17QArrayDataPointerIDsE5derefEv.exit.i.i, %15
  br i1 %12, label %17, label %38

17:                                               ; preds = %_ZN7QStringD2Ev.exit
  %18 = load ptr, ptr %6, align 8
  call void @_ZN9QComboBox15setCurrentIndexEi(ptr noundef nonnull align 8 dereferenceable(40) %18, i32 noundef %.01322)
  %19 = getelementptr inbounds i8, ptr %0, i64 264
  %20 = load ptr, ptr %19, align 8
  %21 = call noundef i32 @_ZNK9QComboBox5countEv(ptr noundef nonnull align 8 dereferenceable(40) %20)
  %22 = icmp sgt i32 %21, 0
  br i1 %22, label %.lr.ph24, label %.loopexit

.lr.ph24:                                         ; preds = %17, %33
  %.01423 = phi i32 [ %34, %33 ], [ 0, %17 ]
  %23 = load ptr, ptr %19, align 8
  call void @_ZNK9QComboBox8itemDataEii(ptr dead_on_unwind nonnull writable sret(%class.QVariant) align 8 %5, ptr noundef nonnull align 8 dereferenceable(40) %23, i32 noundef %.01423, i32 noundef 256)
  %24 = invoke noundef i32 @_ZNK8QVariant6toUIntEPb(ptr noundef nonnull align 8 dereferenceable(32) %5, ptr noundef null)
          to label %25 unwind label %31

25:                                               ; preds = %.lr.ph24
  %26 = icmp eq i32 %24, %2
  call void @_ZN8QVariantD1Ev(ptr noundef nonnull align 8 dereferenceable(32) %5) #19
  br i1 %26, label %.critedge, label %33

.critedge:                                        ; preds = %25
  %27 = load ptr, ptr %19, align 8
  call void @_ZN9QComboBox15setCurrentIndexEi(ptr noundef nonnull align 8 dereferenceable(40) %27, i32 noundef %.01423)
  %28 = load ptr, ptr %0, align 8
  %29 = getelementptr inbounds i8, ptr %28, i64 520
  %30 = load ptr, ptr %29, align 8
  call void %30(ptr noundef nonnull align 8 dereferenceable(248) %0)
  br label %.loopexit

31:                                               ; preds = %.lr.ph24
  %32 = landingpad { ptr, i32 }
          cleanup
  call void @_ZN8QVariantD1Ev(ptr noundef nonnull align 8 dereferenceable(32) %5) #19
  resume { ptr, i32 } %32

33:                                               ; preds = %25
  %34 = add nuw nsw i32 %.01423, 1
  %35 = load ptr, ptr %19, align 8
  %36 = call noundef i32 @_ZNK9QComboBox5countEv(ptr noundef nonnull align 8 dereferenceable(40) %35)
  %37 = icmp slt i32 %34, %36
  br i1 %37, label %.lr.ph24, label %.loopexit, !llvm.loop !28

38:                                               ; preds = %_ZN7QStringD2Ev.exit
  %39 = add nuw nsw i32 %.01322, 1
  %40 = load ptr, ptr %6, align 8
  %41 = call noundef i32 @_ZNK9QComboBox5countEv(ptr noundef nonnull align 8 dereferenceable(40) %40)
  %42 = icmp slt i32 %39, %41
  br i1 %42, label %.lr.ph, label %.loopexit, !llvm.loop !29

.loopexit:                                        ; preds = %38, %33, %3, %17, %.critedge
  ret void
}